target datalayout = "e-m:e-p270:32:32-p271:32:32-p272:64:64-i64:64-i128:128-f80:128-n8:16:32:64-S128"
target triple = "x86_64-pc-linux-gnu"

%struct.ct_data_s = type { %union.anon, %union.anon.0 }
%union.anon = type { i16 }
%union.anon.0 = type { i16 }
%struct.internal_state = type { ptr, i32, ptr, i64, ptr, i64, i32, ptr, i64, i8, i32, i32, i32, i32, ptr, i64, ptr, ptr, i32, i32, i32, i32, i32, i64, i32, i32, i32, i32, i32, i32, i32, i32, i32, i32, i32, i32, i32, [573 x %struct.ct_data_s], [61 x %struct.ct_data_s], [39 x %struct.ct_data_s], %struct.tree_desc_s, %struct.tree_desc_s, %struct.tree_desc_s, [16 x i16], [573 x i32], i32, i32, [573 x i8], ptr, i32, i32, i32, i64, i64, i32, i32, i16, i32, i64 }
%struct.tree_desc_s = type { ptr, i32, ptr }

; Function Attrs: nounwind uwtable
define internal void @bi_flush(ptr noundef %0) #0 {
  %2 = alloca ptr, align 8
  store ptr %0, ptr %2, align 8
  %3 = load ptr, ptr %2, align 8
  %4 = getelementptr inbounds %struct.internal_state, ptr %3, i32 0, i32 57
  %5 = load i32, ptr %4, align 4
  %6 = icmp eq i32 %5, 16
  br i1 %6, label %7, label %40

7:                                                ; preds = %1
  %8 = load ptr, ptr %2, align 8
  %9 = getelementptr inbounds %struct.internal_state, ptr %8, i32 0, i32 56
  %10 = load i16, ptr %9, align 8
  %11 = zext i16 %10 to i32
  %12 = and i32 %11, 255
  %13 = trunc i32 %12 to i8
  %14 = load ptr, ptr %2, align 8
  %15 = getelementptr inbounds %struct.internal_state, ptr %14, i32 0, i32 2
  %16 = load ptr, ptr %15, align 8
  %17 = load ptr, ptr %2, align 8
  %18 = getelementptr inbounds %struct.internal_state, ptr %17, i32 0, i32 5
  %19 = load i64, ptr %18, align 8
  %20 = add i64 %19, 1
  store i64 %20, ptr %18, align 8
  %21 = getelementptr inbounds i8, ptr %16, i64 %19
  store i8 %13, ptr %21, align 1
  %22 = load ptr, ptr %2, align 8
  %23 = getelementptr inbounds %struct.internal_state, ptr %22, i32 0, i32 56
  %24 = load i16, ptr %23, align 8
  %25 = zext i16 %24 to i32
  %26 = ashr i32 %25, 8
  %27 = trunc i32 %26 to i8
  %28 = load ptr, ptr %2, align 8
  %29 = getelementptr inbounds %struct.internal_state, ptr %28, i32 0, i32 2
  %30 = load ptr, ptr %29, align 8
  %31 = load ptr, ptr %2, align 8
  %32 = getelementptr inbounds %struct.internal_state, ptr %31, i32 0, i32 5
  %33 = load i64, ptr %32, align 8
  %34 = add i64 %33, 1
  store i64 %34, ptr %32, align 8
  %35 = getelementptr inbounds i8, ptr %30, i64 %33
  store i8 %27, ptr %35, align 1
  %36 = load ptr, ptr %2, align 8
  %37 = getelementptr inbounds %struct.internal_state, ptr %36, i32 0, i32 56
  store i16 0, ptr %37, align 8
  %38 = load ptr, ptr %2, align 8
  %39 = getelementptr inbounds %struct.internal_state, ptr %38, i32 0, i32 57
  store i32 0, ptr %39, align 4
  br label %69

40:                                               ; preds = %1
  %41 = load ptr, ptr %2, align 8
  %42 = getelementptr inbounds %struct.internal_state, ptr %41, i32 0, i32 57
  %43 = load i32, ptr %42, align 4
  %44 = icmp sge i32 %43, 8
  br i1 %44, label %45, label %68

45:                                               ; preds = %40
  %46 = load ptr, ptr %2, align 8
  %47 = getelementptr inbounds %struct.internal_state, ptr %46, i32 0, i32 56
  %48 = load i16, ptr %47, align 8
  %49 = trunc i16 %48 to i8
  %50 = load ptr, ptr %2, align 8
  %51 = getelementptr inbounds %struct.internal_state, ptr %50, i32 0, i32 2
  %52 = load ptr, ptr %51, align 8
  %53 = load ptr, ptr %2, align 8
  %54 = getelementptr inbounds %struct.internal_state, ptr %53, i32 0, i32 5
  %55 = load i64, ptr %54, align 8
  %56 = add i64 %55, 1
  store i64 %56, ptr %54, align 8
  %57 = getelementptr inbounds i8, ptr %52, i64 %55
  store i8 %49, ptr %57, align 1
  %58 = load ptr, ptr %2, align 8
  %59 = getelementptr inbounds %struct.internal_state, ptr %58, i32 0, i32 56
  %60 = load i16, ptr %59, align 8
  %61 = zext i16 %60 to i32
  %62 = ashr i32 %61, 8
  %63 = trunc i32 %62 to i16
  store i16 %63, ptr %59, align 8
  %64 = load ptr, ptr %2, align 8
  %65 = getelementptr inbounds %struct.internal_state, ptr %64, i32 0, i32 57
  %66 = load i32, ptr %65, align 4
  %67 = sub nsw i32 %66, 8
  store i32 %67, ptr %65, align 4
  br label %68

68:                                               ; preds = %45, %40
  br label %69

69:                                               ; preds = %68, %7
  ret void
}

; Function Attrs: nounwind uwtable
define dso_local void @cm_zlib__tr_flush_bits(ptr noundef %0) #0 {
  %2 = alloca ptr, align 8
  store ptr %0, ptr %2, align 8
  %3 = load ptr, ptr %2, align 8
  call void @bi_flush(ptr noundef %3)
  ret void
}