; Function Attrs: mustprogress nofree norecurse nosync nounwind willreturn memory(write, argmem: readwrite, inaccessiblemem: none) uwtable
define dso_local void @cm_zlib__tr_flush_bits(ptr noundef captures(none) %0) local_unnamed_addr #3 {
  %2 = getelementptr inbounds nuw i8, ptr %0, i64 5940
  %3 = load i32, ptr %2, align 4
  %4 = icmp eq i32 %3, 16
  br i1 %4, label %5, label %22

5:                                                ; preds = %1
  %6 = getelementptr inbounds nuw i8, ptr %0, i64 5936
  %7 = load i16, ptr %6, align 8
  %8 = trunc i16 %7 to i8
  %9 = getelementptr inbounds nuw i8, ptr %0, i64 16
  %10 = load ptr, ptr %9, align 8
  %11 = getelementptr inbounds nuw i8, ptr %0, i64 40
  %12 = load i64, ptr %11, align 8
  %13 = add i64 %12, 1
  store i64 %13, ptr %11, align 8
  %14 = getelementptr inbounds i8, ptr %10, i64 %12
  store i8 %8, ptr %14, align 1
  %15 = load i16, ptr %6, align 8
  %16 = lshr i16 %15, 8
  %17 = trunc nuw i16 %16 to i8
  %18 = load ptr, ptr %9, align 8
  %19 = load i64, ptr %11, align 8
  %20 = add i64 %19, 1
  store i64 %20, ptr %11, align 8
  %21 = getelementptr inbounds i8, ptr %18, i64 %19
  store i8 %17, ptr %21, align 1
  store i16 0, ptr %6, align 8
  br label %.sink.split.i

22:                                               ; preds = %1
  %23 = icmp sgt i32 %3, 7
  br i1 %23, label %24, label %bi_flush.exit

24:                                               ; preds = %22
  %25 = getelementptr inbounds nuw i8, ptr %0, i64 5936
  %26 = load i16, ptr %25, align 8
  %27 = trunc i16 %26 to i8
  %28 = getelementptr inbounds nuw i8, ptr %0, i64 16
  %29 = load ptr, ptr %28, align 8
  %30 = getelementptr inbounds nuw i8, ptr %0, i64 40
  %31 = load i64, ptr %30, align 8
  %32 = add i64 %31, 1
  store i64 %32, ptr %30, align 8
  %33 = getelementptr inbounds i8, ptr %29, i64 %31
  store i8 %27, ptr %33, align 1
  %34 = load i16, ptr %25, align 8
  %35 = lshr i16 %34, 8
  store i16 %35, ptr %25, align 8
  %36 = load i32, ptr %2, align 4
  %37 = add nsw i32 %36, -8
  br label %.sink.split.i

.sink.split.i:                                    ; preds = %24, %5
  %.sink.i = phi i32 [ %37, %24 ], [ 0, %5 ]
  store i32 %.sink.i, ptr %2, align 4
  br label %bi_flush.exit

bi_flush.exit:                                    ; preds = %22, %.sink.split.i
  ret void
}